
master.elf:     file format elf32-avr

Sections:
Idx Name          Size      VMA       LMA       File off  Algn
  0 .data         00000900  00800200  00000838  000008cc  2**0
                  CONTENTS, ALLOC, LOAD, DATA
  1 .text         00000838  00000000  00000000  00000094  2**1
                  CONTENTS, ALLOC, LOAD, READONLY, CODE
  2 .bss          000001d4  00800b00  00800b00  000011cc  2**0
                  ALLOC
  3 .comment      00000030  00000000  00000000  000011cc  2**0
                  CONTENTS, READONLY
  4 .note.gnu.avr.deviceinfo 00000040  00000000  00000000  000011fc  2**2
                  CONTENTS, READONLY
  5 .debug_aranges 00000238  00000000  00000000  0000123c  2**0
                  CONTENTS, READONLY, DEBUGGING
  6 .debug_info   000030fb  00000000  00000000  00001474  2**0
                  CONTENTS, READONLY, DEBUGGING
  7 .debug_abbrev 00001002  00000000  00000000  0000456f  2**0
                  CONTENTS, READONLY, DEBUGGING
  8 .debug_line   00001a40  00000000  00000000  00005571  2**0
                  CONTENTS, READONLY, DEBUGGING
  9 .debug_frame  00000784  00000000  00000000  00006fb4  2**2
                  CONTENTS, READONLY, DEBUGGING
 10 .debug_str    00000dd3  00000000  00000000  00007738  2**0
                  CONTENTS, READONLY, DEBUGGING
 11 .debug_loc    00002503  00000000  00000000  0000850b  2**0
                  CONTENTS, READONLY, DEBUGGING
 12 .debug_ranges 00000240  00000000  00000000  0000aa0e  2**0
                  CONTENTS, READONLY, DEBUGGING

Disassembly of section .text:

00000000 <__vectors>:
   0:	71 c0       	rjmp	.+226    	; 0xe4 <__ctors_end>
   2:	00 00       	nop
   4:	8e c0       	rjmp	.+284    	; 0x122 <__bad_interrupt>
   6:	00 00       	nop
   8:	8c c0       	rjmp	.+280    	; 0x122 <__bad_interrupt>
   a:	00 00       	nop
   c:	8a c0       	rjmp	.+276    	; 0x122 <__bad_interrupt>
   e:	00 00       	nop
  10:	88 c0       	rjmp	.+272    	; 0x122 <__bad_interrupt>
  12:	00 00       	nop
  14:	b0 c1       	rjmp	.+864    	; 0x376 <__vector_5>
  16:	00 00       	nop
  18:	89 c1       	rjmp	.+786    	; 0x32c <__vector_6>
  1a:	00 00       	nop
  1c:	82 c0       	rjmp	.+260    	; 0x122 <__bad_interrupt>
  1e:	00 00       	nop
  20:	80 c0       	rjmp	.+256    	; 0x122 <__bad_interrupt>
  22:	00 00       	nop
  24:	7e c0       	rjmp	.+252    	; 0x122 <__bad_interrupt>
  26:	00 00       	nop
  28:	7c c0       	rjmp	.+248    	; 0x122 <__bad_interrupt>
  2a:	00 00       	nop
  2c:	7a c0       	rjmp	.+244    	; 0x122 <__bad_interrupt>
  2e:	00 00       	nop
  30:	78 c0       	rjmp	.+240    	; 0x122 <__bad_interrupt>
  32:	00 00       	nop
  34:	76 c0       	rjmp	.+236    	; 0x122 <__bad_interrupt>
  36:	00 00       	nop
  38:	74 c0       	rjmp	.+232    	; 0x122 <__bad_interrupt>
  3a:	00 00       	nop
  3c:	72 c0       	rjmp	.+228    	; 0x122 <__bad_interrupt>
  3e:	00 00       	nop
  40:	70 c0       	rjmp	.+224    	; 0x122 <__bad_interrupt>
  42:	00 00       	nop
  44:	6e c0       	rjmp	.+220    	; 0x122 <__bad_interrupt>
  46:	00 00       	nop
  48:	6c c0       	rjmp	.+216    	; 0x122 <__bad_interrupt>
  4a:	00 00       	nop
  4c:	6a c0       	rjmp	.+212    	; 0x122 <__bad_interrupt>
  4e:	00 00       	nop
  50:	68 c0       	rjmp	.+208    	; 0x122 <__bad_interrupt>
  52:	00 00       	nop
  54:	66 c0       	rjmp	.+204    	; 0x122 <__bad_interrupt>
  56:	00 00       	nop
  58:	64 c0       	rjmp	.+200    	; 0x122 <__bad_interrupt>
  5a:	00 00       	nop
  5c:	62 c0       	rjmp	.+196    	; 0x122 <__bad_interrupt>
  5e:	00 00       	nop
  60:	60 c0       	rjmp	.+192    	; 0x122 <__bad_interrupt>
  62:	00 00       	nop
  64:	e7 c1       	rjmp	.+974    	; 0x434 <__vector_25>
  66:	00 00       	nop
  68:	5c c0       	rjmp	.+184    	; 0x122 <__bad_interrupt>
  6a:	00 00       	nop
  6c:	5a c0       	rjmp	.+180    	; 0x122 <__bad_interrupt>
  6e:	00 00       	nop
  70:	58 c0       	rjmp	.+176    	; 0x122 <__bad_interrupt>
  72:	00 00       	nop
  74:	56 c0       	rjmp	.+172    	; 0x122 <__bad_interrupt>
  76:	00 00       	nop
  78:	54 c0       	rjmp	.+168    	; 0x122 <__bad_interrupt>
  7a:	00 00       	nop
  7c:	52 c0       	rjmp	.+164    	; 0x122 <__bad_interrupt>
  7e:	00 00       	nop
  80:	50 c0       	rjmp	.+160    	; 0x122 <__bad_interrupt>
  82:	00 00       	nop
  84:	4e c0       	rjmp	.+156    	; 0x122 <__bad_interrupt>
  86:	00 00       	nop
  88:	4c c0       	rjmp	.+152    	; 0x122 <__bad_interrupt>
  8a:	00 00       	nop
  8c:	4a c0       	rjmp	.+148    	; 0x122 <__bad_interrupt>
  8e:	00 00       	nop
  90:	48 c0       	rjmp	.+144    	; 0x122 <__bad_interrupt>
  92:	00 00       	nop
  94:	46 c0       	rjmp	.+140    	; 0x122 <__bad_interrupt>
  96:	00 00       	nop
  98:	44 c0       	rjmp	.+136    	; 0x122 <__bad_interrupt>
  9a:	00 00       	nop
  9c:	42 c0       	rjmp	.+132    	; 0x122 <__bad_interrupt>
  9e:	00 00       	nop
  a0:	40 c0       	rjmp	.+128    	; 0x122 <__bad_interrupt>
  a2:	00 00       	nop
  a4:	3e c0       	rjmp	.+124    	; 0x122 <__bad_interrupt>
  a6:	00 00       	nop
  a8:	3c c0       	rjmp	.+120    	; 0x122 <__bad_interrupt>
  aa:	00 00       	nop
  ac:	3a c0       	rjmp	.+116    	; 0x122 <__bad_interrupt>
  ae:	00 00       	nop
  b0:	38 c0       	rjmp	.+112    	; 0x122 <__bad_interrupt>
  b2:	00 00       	nop
  b4:	36 c0       	rjmp	.+108    	; 0x122 <__bad_interrupt>
  b6:	00 00       	nop
  b8:	34 c0       	rjmp	.+104    	; 0x122 <__bad_interrupt>
  ba:	00 00       	nop
  bc:	32 c0       	rjmp	.+100    	; 0x122 <__bad_interrupt>
  be:	00 00       	nop
  c0:	30 c0       	rjmp	.+96     	; 0x122 <__bad_interrupt>
  c2:	00 00       	nop
  c4:	2e c0       	rjmp	.+92     	; 0x122 <__bad_interrupt>
  c6:	00 00       	nop
  c8:	2c c0       	rjmp	.+88     	; 0x122 <__bad_interrupt>
  ca:	00 00       	nop
  cc:	2a c0       	rjmp	.+84     	; 0x122 <__bad_interrupt>
  ce:	00 00       	nop
  d0:	28 c0       	rjmp	.+80     	; 0x122 <__bad_interrupt>
  d2:	00 00       	nop
  d4:	26 c0       	rjmp	.+76     	; 0x122 <__bad_interrupt>
  d6:	00 00       	nop
  d8:	24 c0       	rjmp	.+72     	; 0x122 <__bad_interrupt>
  da:	00 00       	nop
  dc:	22 c0       	rjmp	.+68     	; 0x122 <__bad_interrupt>
  de:	00 00       	nop
  e0:	20 c0       	rjmp	.+64     	; 0x122 <__bad_interrupt>
	...

000000e4 <__ctors_end>:
  e4:	11 24       	eor	r1, r1
  e6:	1f be       	out	0x3f, r1	; 63
  e8:	cf ef       	ldi	r28, 0xFF	; 255
  ea:	d1 e2       	ldi	r29, 0x21	; 33
  ec:	de bf       	out	0x3e, r29	; 62
  ee:	cd bf       	out	0x3d, r28	; 61
  f0:	00 e0       	ldi	r16, 0x00	; 0
  f2:	0c bf       	out	0x3c, r16	; 60

000000f4 <__do_copy_data>:
  f4:	1b e0       	ldi	r17, 0x0B	; 11
  f6:	a0 e0       	ldi	r26, 0x00	; 0
  f8:	b2 e0       	ldi	r27, 0x02	; 2
  fa:	e8 e3       	ldi	r30, 0x38	; 56
  fc:	f8 e0       	ldi	r31, 0x08	; 8
  fe:	00 e0       	ldi	r16, 0x00	; 0
 100:	0b bf       	out	0x3b, r16	; 59
 102:	02 c0       	rjmp	.+4      	; 0x108 <__do_copy_data+0x14>
 104:	07 90       	elpm	r0, Z+
 106:	0d 92       	st	X+, r0
 108:	a0 30       	cpi	r26, 0x00	; 0
 10a:	b1 07       	cpc	r27, r17
 10c:	d9 f7       	brne	.-10     	; 0x104 <__do_copy_data+0x10>

0000010e <__do_clear_bss>:
 10e:	2c e0       	ldi	r18, 0x0C	; 12
 110:	a0 e0       	ldi	r26, 0x00	; 0
 112:	bb e0       	ldi	r27, 0x0B	; 11
 114:	01 c0       	rjmp	.+2      	; 0x118 <.do_clear_bss_start>

00000116 <.do_clear_bss_loop>:
 116:	1d 92       	st	X+, r1

00000118 <.do_clear_bss_start>:
 118:	a4 3d       	cpi	r26, 0xD4	; 212
 11a:	b2 07       	cpc	r27, r18
 11c:	e1 f7       	brne	.-8      	; 0x116 <.do_clear_bss_loop>
 11e:	e9 d1       	rcall	.+978    	; 0x4f2 <main>
 120:	89 c3       	rjmp	.+1810   	; 0x834 <_exit>

00000122 <__bad_interrupt>:
 122:	6e cf       	rjmp	.-292    	; 0x0 <__vectors>

00000124 <right_servo1_pin_config>:
					pathLength[count] = pathLength[current] + (int) connected_nodes[current][count];
				}
			}
		}
	}
}
 124:	25 9a       	sbi	0x04, 5	; 4
 126:	2d 9a       	sbi	0x05, 5	; 5
 128:	08 95       	ret

0000012a <left_servo2_pin_config>:
 12a:	26 9a       	sbi	0x04, 6	; 4
 12c:	2e 9a       	sbi	0x05, 6	; 5
 12e:	08 95       	ret

00000130 <striking_arm_servo3_pin_config>:
 130:	27 9a       	sbi	0x04, 7	; 4
 132:	2f 9a       	sbi	0x05, 7	; 5
 134:	08 95       	ret

00000136 <left_servo_2>:
 136:	10 92 8b 00 	sts	0x008B, r1	; 0x80008b <__TEXT_REGION_LENGTH__+0x70008b>
 13a:	68 2f       	mov	r22, r24
 13c:	70 e0       	ldi	r23, 0x00	; 0
 13e:	80 e0       	ldi	r24, 0x00	; 0
 140:	90 e0       	ldi	r25, 0x00	; 0
 142:	ea d2       	rcall	.+1492   	; 0x718 <__floatunsisf>
 144:	2b e7       	ldi	r18, 0x7B	; 123
 146:	34 e1       	ldi	r19, 0x14	; 20
 148:	4e ee       	ldi	r20, 0xEE	; 238
 14a:	5f e3       	ldi	r21, 0x3F	; 63
 14c:	51 d2       	rcall	.+1186   	; 0x5f0 <__divsf3>
 14e:	20 e0       	ldi	r18, 0x00	; 0
 150:	30 e0       	ldi	r19, 0x00	; 0
 152:	4c e0       	ldi	r20, 0x0C	; 12
 154:	52 e4       	ldi	r21, 0x42	; 66
 156:	e8 d1       	rcall	.+976    	; 0x528 <__addsf3>
 158:	b3 d2       	rcall	.+1382   	; 0x6c0 <__fixunssfsi>
 15a:	60 93 8a 00 	sts	0x008A, r22	; 0x80008a <__TEXT_REGION_LENGTH__+0x70008a>
 15e:	08 95       	ret

00000160 <lcd_set_4bit>:
 160:	86 e6       	ldi	r24, 0x66	; 102
 162:	9e e0       	ldi	r25, 0x0E	; 14
 164:	01 97       	sbiw	r24, 0x01	; 1
 166:	f1 f7       	brne	.-4      	; 0x164 <lcd_set_4bit+0x4>
 168:	00 00       	nop
 16a:	40 98       	cbi	0x08, 0	; 8
 16c:	41 98       	cbi	0x08, 1	; 8
 16e:	80 e3       	ldi	r24, 0x30	; 48
 170:	88 b9       	out	0x08, r24	; 8
 172:	42 9a       	sbi	0x08, 2	; 8
 174:	ef ef       	ldi	r30, 0xFF	; 255
 176:	f7 e4       	ldi	r31, 0x47	; 71
 178:	31 97       	sbiw	r30, 0x01	; 1
 17a:	f1 f7       	brne	.-4      	; 0x178 <lcd_set_4bit+0x18>
 17c:	00 c0       	rjmp	.+0      	; 0x17e <lcd_set_4bit+0x1e>
 17e:	00 00       	nop
 180:	42 98       	cbi	0x08, 2	; 8
 182:	e6 e6       	ldi	r30, 0x66	; 102
 184:	fe e0       	ldi	r31, 0x0E	; 14
 186:	31 97       	sbiw	r30, 0x01	; 1
 188:	f1 f7       	brne	.-4      	; 0x186 <lcd_set_4bit+0x26>
 18a:	00 00       	nop
 18c:	40 98       	cbi	0x08, 0	; 8
 18e:	41 98       	cbi	0x08, 1	; 8
 190:	88 b9       	out	0x08, r24	; 8
 192:	42 9a       	sbi	0x08, 2	; 8
 194:	ef ef       	ldi	r30, 0xFF	; 255
 196:	f7 e4       	ldi	r31, 0x47	; 71
 198:	31 97       	sbiw	r30, 0x01	; 1
 19a:	f1 f7       	brne	.-4      	; 0x198 <lcd_set_4bit+0x38>
 19c:	00 c0       	rjmp	.+0      	; 0x19e <lcd_set_4bit+0x3e>
 19e:	00 00       	nop
 1a0:	42 98       	cbi	0x08, 2	; 8
 1a2:	e6 e6       	ldi	r30, 0x66	; 102
 1a4:	fe e0       	ldi	r31, 0x0E	; 14
 1a6:	31 97       	sbiw	r30, 0x01	; 1
 1a8:	f1 f7       	brne	.-4      	; 0x1a6 <lcd_set_4bit+0x46>
 1aa:	00 00       	nop
 1ac:	40 98       	cbi	0x08, 0	; 8
 1ae:	41 98       	cbi	0x08, 1	; 8
 1b0:	88 b9       	out	0x08, r24	; 8
 1b2:	42 9a       	sbi	0x08, 2	; 8
 1b4:	8f ef       	ldi	r24, 0xFF	; 255
 1b6:	97 e4       	ldi	r25, 0x47	; 71
 1b8:	01 97       	sbiw	r24, 0x01	; 1
 1ba:	f1 f7       	brne	.-4      	; 0x1b8 <lcd_set_4bit+0x58>
 1bc:	00 c0       	rjmp	.+0      	; 0x1be <lcd_set_4bit+0x5e>
 1be:	00 00       	nop
 1c0:	42 98       	cbi	0x08, 2	; 8
 1c2:	e6 e6       	ldi	r30, 0x66	; 102
 1c4:	fe e0       	ldi	r31, 0x0E	; 14
 1c6:	31 97       	sbiw	r30, 0x01	; 1
 1c8:	f1 f7       	brne	.-4      	; 0x1c6 <lcd_set_4bit+0x66>
 1ca:	00 00       	nop
 1cc:	40 98       	cbi	0x08, 0	; 8
 1ce:	41 98       	cbi	0x08, 1	; 8
 1d0:	80 e2       	ldi	r24, 0x20	; 32
 1d2:	88 b9       	out	0x08, r24	; 8
 1d4:	42 9a       	sbi	0x08, 2	; 8
 1d6:	8f ef       	ldi	r24, 0xFF	; 255
 1d8:	97 e4       	ldi	r25, 0x47	; 71
 1da:	01 97       	sbiw	r24, 0x01	; 1
 1dc:	f1 f7       	brne	.-4      	; 0x1da <lcd_set_4bit+0x7a>
 1de:	00 c0       	rjmp	.+0      	; 0x1e0 <lcd_set_4bit+0x80>
 1e0:	00 00       	nop
 1e2:	42 98       	cbi	0x08, 2	; 8
 1e4:	08 95       	ret

000001e6 <lcd_wr_command>:
 1e6:	98 b1       	in	r25, 0x08	; 8
 1e8:	9f 70       	andi	r25, 0x0F	; 15
 1ea:	98 b9       	out	0x08, r25	; 8
 1ec:	98 b1       	in	r25, 0x08	; 8
 1ee:	28 2f       	mov	r18, r24
 1f0:	20 7f       	andi	r18, 0xF0	; 240
 1f2:	92 2b       	or	r25, r18
 1f4:	98 b9       	out	0x08, r25	; 8
 1f6:	40 98       	cbi	0x08, 0	; 8
 1f8:	41 98       	cbi	0x08, 1	; 8
 1fa:	42 9a       	sbi	0x08, 2	; 8
 1fc:	ef ef       	ldi	r30, 0xFF	; 255
 1fe:	f7 e4       	ldi	r31, 0x47	; 71
 200:	31 97       	sbiw	r30, 0x01	; 1
 202:	f1 f7       	brne	.-4      	; 0x200 <lcd_wr_command+0x1a>
 204:	00 c0       	rjmp	.+0      	; 0x206 <lcd_wr_command+0x20>
 206:	00 00       	nop
 208:	42 98       	cbi	0x08, 2	; 8
 20a:	98 b1       	in	r25, 0x08	; 8
 20c:	9f 70       	andi	r25, 0x0F	; 15
 20e:	98 b9       	out	0x08, r25	; 8
 210:	98 b1       	in	r25, 0x08	; 8
 212:	82 95       	swap	r24
 214:	80 7f       	andi	r24, 0xF0	; 240
 216:	89 2b       	or	r24, r25
 218:	88 b9       	out	0x08, r24	; 8
 21a:	40 98       	cbi	0x08, 0	; 8
 21c:	41 98       	cbi	0x08, 1	; 8
 21e:	42 9a       	sbi	0x08, 2	; 8
 220:	8f ef       	ldi	r24, 0xFF	; 255
 222:	97 e4       	ldi	r25, 0x47	; 71
 224:	01 97       	sbiw	r24, 0x01	; 1
 226:	f1 f7       	brne	.-4      	; 0x224 <lcd_wr_command+0x3e>
 228:	00 c0       	rjmp	.+0      	; 0x22a <lcd_wr_command+0x44>
 22a:	00 00       	nop
 22c:	42 98       	cbi	0x08, 2	; 8
 22e:	08 95       	ret

00000230 <lcd_init>:
 230:	86 e6       	ldi	r24, 0x66	; 102
 232:	9e e0       	ldi	r25, 0x0E	; 14
 234:	01 97       	sbiw	r24, 0x01	; 1
 236:	f1 f7       	brne	.-4      	; 0x234 <lcd_init+0x4>
 238:	00 00       	nop
 23a:	88 e2       	ldi	r24, 0x28	; 40
 23c:	d4 df       	rcall	.-88     	; 0x1e6 <lcd_wr_command>
 23e:	81 e0       	ldi	r24, 0x01	; 1
 240:	d2 df       	rcall	.-92     	; 0x1e6 <lcd_wr_command>
 242:	86 e0       	ldi	r24, 0x06	; 6
 244:	d0 df       	rcall	.-96     	; 0x1e6 <lcd_wr_command>
 246:	8e e0       	ldi	r24, 0x0E	; 14
 248:	ce df       	rcall	.-100    	; 0x1e6 <lcd_wr_command>
 24a:	80 e8       	ldi	r24, 0x80	; 128
 24c:	cc cf       	rjmp	.-104    	; 0x1e6 <lcd_wr_command>
 24e:	08 95       	ret

00000250 <uart0_init>:
 250:	e1 ec       	ldi	r30, 0xC1	; 193
 252:	f0 e0       	ldi	r31, 0x00	; 0
 254:	10 82       	st	Z, r1
 256:	10 92 c0 00 	sts	0x00C0, r1	; 0x8000c0 <__TEXT_REGION_LENGTH__+0x7000c0>
 25a:	86 e0       	ldi	r24, 0x06	; 6
 25c:	80 93 c2 00 	sts	0x00C2, r24	; 0x8000c2 <__TEXT_REGION_LENGTH__+0x7000c2>
 260:	8f e5       	ldi	r24, 0x5F	; 95
 262:	80 93 c4 00 	sts	0x00C4, r24	; 0x8000c4 <__TEXT_REGION_LENGTH__+0x7000c4>
 266:	10 92 c5 00 	sts	0x00C5, r1	; 0x8000c5 <__TEXT_REGION_LENGTH__+0x7000c5>
 26a:	88 e9       	ldi	r24, 0x98	; 152
 26c:	80 83       	st	Z, r24
 26e:	08 95       	ret

00000270 <lcd_port_config>:
 270:	87 b1       	in	r24, 0x07	; 7
 272:	87 6f       	ori	r24, 0xF7	; 247
 274:	87 b9       	out	0x07, r24	; 7
 276:	88 b1       	in	r24, 0x08	; 8
 278:	80 78       	andi	r24, 0x80	; 128
 27a:	88 b9       	out	0x08, r24	; 8
 27c:	08 95       	ret

0000027e <adc_pin_config>:
 27e:	10 ba       	out	0x10, r1	; 16
 280:	11 ba       	out	0x11, r1	; 17
 282:	10 92 07 01 	sts	0x0107, r1	; 0x800107 <__TEXT_REGION_LENGTH__+0x700107>
 286:	10 92 08 01 	sts	0x0108, r1	; 0x800108 <__TEXT_REGION_LENGTH__+0x700108>
 28a:	08 95       	ret

0000028c <adc_init>:
 28c:	ea e7       	ldi	r30, 0x7A	; 122
 28e:	f0 e0       	ldi	r31, 0x00	; 0
 290:	10 82       	st	Z, r1
 292:	10 92 7b 00 	sts	0x007B, r1	; 0x80007b <__TEXT_REGION_LENGTH__+0x70007b>
 296:	80 e2       	ldi	r24, 0x20	; 32
 298:	80 93 7c 00 	sts	0x007C, r24	; 0x80007c <__TEXT_REGION_LENGTH__+0x70007c>
 29c:	80 e8       	ldi	r24, 0x80	; 128
 29e:	80 bf       	out	0x30, r24	; 48
 2a0:	86 e8       	ldi	r24, 0x86	; 134
 2a2:	80 83       	st	Z, r24
 2a4:	08 95       	ret

000002a6 <motion_pin_config>:
 2a6:	81 b1       	in	r24, 0x01	; 1
 2a8:	8f 60       	ori	r24, 0x0F	; 15
 2aa:	81 b9       	out	0x01, r24	; 1
 2ac:	82 b1       	in	r24, 0x02	; 2
 2ae:	80 7f       	andi	r24, 0xF0	; 240
 2b0:	82 b9       	out	0x02, r24	; 2
 2b2:	ea e0       	ldi	r30, 0x0A	; 10
 2b4:	f1 e0       	ldi	r31, 0x01	; 1
 2b6:	80 81       	ld	r24, Z
 2b8:	88 61       	ori	r24, 0x18	; 24
 2ba:	80 83       	st	Z, r24
 2bc:	eb e0       	ldi	r30, 0x0B	; 11
 2be:	f1 e0       	ldi	r31, 0x01	; 1
 2c0:	80 81       	ld	r24, Z
 2c2:	88 61       	ori	r24, 0x18	; 24
 2c4:	80 83       	st	Z, r24
 2c6:	08 95       	ret

000002c8 <timer5_init>:
 2c8:	e1 e2       	ldi	r30, 0x21	; 33
 2ca:	f1 e0       	ldi	r31, 0x01	; 1
 2cc:	10 82       	st	Z, r1
 2ce:	8f ef       	ldi	r24, 0xFF	; 255
 2d0:	80 93 25 01 	sts	0x0125, r24	; 0x800125 <__TEXT_REGION_LENGTH__+0x700125>
 2d4:	91 e0       	ldi	r25, 0x01	; 1
 2d6:	90 93 24 01 	sts	0x0124, r25	; 0x800124 <__TEXT_REGION_LENGTH__+0x700124>
 2da:	10 92 29 01 	sts	0x0129, r1	; 0x800129 <__TEXT_REGION_LENGTH__+0x700129>
 2de:	80 93 28 01 	sts	0x0128, r24	; 0x800128 <__TEXT_REGION_LENGTH__+0x700128>
 2e2:	10 92 2b 01 	sts	0x012B, r1	; 0x80012b <__TEXT_REGION_LENGTH__+0x70012b>
 2e6:	80 93 2a 01 	sts	0x012A, r24	; 0x80012a <__TEXT_REGION_LENGTH__+0x70012a>
 2ea:	10 92 2d 01 	sts	0x012D, r1	; 0x80012d <__TEXT_REGION_LENGTH__+0x70012d>
 2ee:	80 93 2c 01 	sts	0x012C, r24	; 0x80012c <__TEXT_REGION_LENGTH__+0x70012c>
 2f2:	89 ea       	ldi	r24, 0xA9	; 169
 2f4:	80 93 20 01 	sts	0x0120, r24	; 0x800120 <__TEXT_REGION_LENGTH__+0x700120>
 2f8:	8b e0       	ldi	r24, 0x0B	; 11
 2fa:	80 83       	st	Z, r24
 2fc:	08 95       	ret

000002fe <left_encoder_pin_config>:
 2fe:	6c 98       	cbi	0x0d, 4	; 13
 300:	74 9a       	sbi	0x0e, 4	; 14
 302:	08 95       	ret

00000304 <right_encoder_pin_config>:
 304:	6d 98       	cbi	0x0d, 5	; 13
 306:	75 9a       	sbi	0x0e, 5	; 14
 308:	08 95       	ret

0000030a <left_position_encoder_interrupt_init>:
 30a:	f8 94       	cli
 30c:	ea e6       	ldi	r30, 0x6A	; 106
 30e:	f0 e0       	ldi	r31, 0x00	; 0
 310:	80 81       	ld	r24, Z
 312:	82 60       	ori	r24, 0x02	; 2
 314:	80 83       	st	Z, r24
 316:	ec 9a       	sbi	0x1d, 4	; 29
 318:	78 94       	sei
 31a:	08 95       	ret

0000031c <right_position_encoder_interrupt_init>:
 31c:	f8 94       	cli
 31e:	ea e6       	ldi	r30, 0x6A	; 106
 320:	f0 e0       	ldi	r31, 0x00	; 0
 322:	80 81       	ld	r24, Z
 324:	88 60       	ori	r24, 0x08	; 8
 326:	80 83       	st	Z, r24
 328:	ed 9a       	sbi	0x1d, 5	; 29
 32a:	08 95       	ret

0000032c <__vector_6>:
 32c:	1f 92       	push	r1
 32e:	0f 92       	push	r0
 330:	0f b6       	in	r0, 0x3f	; 63
 332:	0f 92       	push	r0
 334:	11 24       	eor	r1, r1
 336:	8f 93       	push	r24
 338:	9f 93       	push	r25
 33a:	af 93       	push	r26
 33c:	bf 93       	push	r27
 33e:	80 91 04 0b 	lds	r24, 0x0B04	; 0x800b04 <ShaftCountRight>
 342:	90 91 05 0b 	lds	r25, 0x0B05	; 0x800b05 <ShaftCountRight+0x1>
 346:	a0 91 06 0b 	lds	r26, 0x0B06	; 0x800b06 <ShaftCountRight+0x2>
 34a:	b0 91 07 0b 	lds	r27, 0x0B07	; 0x800b07 <ShaftCountRight+0x3>
 34e:	01 96       	adiw	r24, 0x01	; 1
 350:	a1 1d       	adc	r26, r1
 352:	b1 1d       	adc	r27, r1
 354:	80 93 04 0b 	sts	0x0B04, r24	; 0x800b04 <ShaftCountRight>
 358:	90 93 05 0b 	sts	0x0B05, r25	; 0x800b05 <ShaftCountRight+0x1>
 35c:	a0 93 06 0b 	sts	0x0B06, r26	; 0x800b06 <ShaftCountRight+0x2>
 360:	b0 93 07 0b 	sts	0x0B07, r27	; 0x800b07 <ShaftCountRight+0x3>
 364:	bf 91       	pop	r27
 366:	af 91       	pop	r26
 368:	9f 91       	pop	r25
 36a:	8f 91       	pop	r24
 36c:	0f 90       	pop	r0
 36e:	0f be       	out	0x3f, r0	; 63
 370:	0f 90       	pop	r0
 372:	1f 90       	pop	r1
 374:	18 95       	reti

00000376 <__vector_5>:
 376:	1f 92       	push	r1
 378:	0f 92       	push	r0
 37a:	0f b6       	in	r0, 0x3f	; 63
 37c:	0f 92       	push	r0
 37e:	11 24       	eor	r1, r1
 380:	8f 93       	push	r24
 382:	9f 93       	push	r25
 384:	af 93       	push	r26
 386:	bf 93       	push	r27
 388:	80 91 00 0b 	lds	r24, 0x0B00	; 0x800b00 <__data_end>
 38c:	90 91 01 0b 	lds	r25, 0x0B01	; 0x800b01 <__data_end+0x1>
 390:	a0 91 02 0b 	lds	r26, 0x0B02	; 0x800b02 <__data_end+0x2>
 394:	b0 91 03 0b 	lds	r27, 0x0B03	; 0x800b03 <__data_end+0x3>
 398:	01 96       	adiw	r24, 0x01	; 1
 39a:	a1 1d       	adc	r26, r1
 39c:	b1 1d       	adc	r27, r1
 39e:	80 93 00 0b 	sts	0x0B00, r24	; 0x800b00 <__data_end>
 3a2:	90 93 01 0b 	sts	0x0B01, r25	; 0x800b01 <__data_end+0x1>
 3a6:	a0 93 02 0b 	sts	0x0B02, r26	; 0x800b02 <__data_end+0x2>
 3aa:	b0 93 03 0b 	sts	0x0B03, r27	; 0x800b03 <__data_end+0x3>
 3ae:	bf 91       	pop	r27
 3b0:	af 91       	pop	r26
 3b2:	9f 91       	pop	r25
 3b4:	8f 91       	pop	r24
 3b6:	0f 90       	pop	r0
 3b8:	0f be       	out	0x3f, r0	; 63
 3ba:	0f 90       	pop	r0
 3bc:	1f 90       	pop	r1
 3be:	18 95       	reti

000003c0 <buzzer_pin_config>:
 3c0:	3b 9a       	sbi	0x07, 3	; 7
 3c2:	43 98       	cbi	0x08, 3	; 8
 3c4:	08 95       	ret

000003c6 <port_init>:
 3c6:	5b df       	rcall	.-330    	; 0x27e <adc_pin_config>
 3c8:	6e df       	rcall	.-292    	; 0x2a6 <motion_pin_config>
 3ca:	99 df       	rcall	.-206    	; 0x2fe <left_encoder_pin_config>
 3cc:	9b df       	rcall	.-202    	; 0x304 <right_encoder_pin_config>
 3ce:	f8 df       	rcall	.-16     	; 0x3c0 <buzzer_pin_config>
 3d0:	4f df       	rcall	.-354    	; 0x270 <lcd_port_config>
 3d2:	a8 de       	rcall	.-688    	; 0x124 <right_servo1_pin_config>
 3d4:	aa de       	rcall	.-684    	; 0x12a <left_servo2_pin_config>
 3d6:	ac ce       	rjmp	.-680    	; 0x130 <striking_arm_servo3_pin_config>
 3d8:	08 95       	ret

000003da <timer1_init>:
 3da:	e1 e8       	ldi	r30, 0x81	; 129
 3dc:	f0 e0       	ldi	r31, 0x00	; 0
 3de:	10 82       	st	Z, r1
 3e0:	8c ef       	ldi	r24, 0xFC	; 252
 3e2:	80 93 85 00 	sts	0x0085, r24	; 0x800085 <__TEXT_REGION_LENGTH__+0x700085>
 3e6:	81 e0       	ldi	r24, 0x01	; 1
 3e8:	80 93 84 00 	sts	0x0084, r24	; 0x800084 <__TEXT_REGION_LENGTH__+0x700084>
 3ec:	93 e0       	ldi	r25, 0x03	; 3
 3ee:	90 93 89 00 	sts	0x0089, r25	; 0x800089 <__TEXT_REGION_LENGTH__+0x700089>
 3f2:	8f ef       	ldi	r24, 0xFF	; 255
 3f4:	80 93 88 00 	sts	0x0088, r24	; 0x800088 <__TEXT_REGION_LENGTH__+0x700088>
 3f8:	90 93 8b 00 	sts	0x008B, r25	; 0x80008b <__TEXT_REGION_LENGTH__+0x70008b>
 3fc:	80 93 8a 00 	sts	0x008A, r24	; 0x80008a <__TEXT_REGION_LENGTH__+0x70008a>
 400:	90 93 8d 00 	sts	0x008D, r25	; 0x80008d <__TEXT_REGION_LENGTH__+0x70008d>
 404:	80 93 8c 00 	sts	0x008C, r24	; 0x80008c <__TEXT_REGION_LENGTH__+0x70008c>
 408:	90 93 87 00 	sts	0x0087, r25	; 0x800087 <__TEXT_REGION_LENGTH__+0x700087>
 40c:	80 93 86 00 	sts	0x0086, r24	; 0x800086 <__TEXT_REGION_LENGTH__+0x700086>
 410:	8b ea       	ldi	r24, 0xAB	; 171
 412:	80 93 80 00 	sts	0x0080, r24	; 0x800080 <__TEXT_REGION_LENGTH__+0x700080>
 416:	10 92 82 00 	sts	0x0082, r1	; 0x800082 <__TEXT_REGION_LENGTH__+0x700082>
 41a:	8c e0       	ldi	r24, 0x0C	; 12
 41c:	80 83       	st	Z, r24
 41e:	08 95       	ret

00000420 <init_devices>:
 420:	f8 94       	cli
 422:	d1 df       	rcall	.-94     	; 0x3c6 <port_init>
 424:	33 df       	rcall	.-410    	; 0x28c <adc_init>
 426:	d9 df       	rcall	.-78     	; 0x3da <timer1_init>
 428:	4f df       	rcall	.-354    	; 0x2c8 <timer5_init>
 42a:	6f df       	rcall	.-290    	; 0x30a <left_position_encoder_interrupt_init>
 42c:	77 df       	rcall	.-274    	; 0x31c <right_position_encoder_interrupt_init>
 42e:	10 df       	rcall	.-480    	; 0x250 <uart0_init>
 430:	78 94       	sei
 432:	08 95       	ret

00000434 <__vector_25>:

void play_note(int mnp);
void master_com();

ISR(USART0_RX_vect)
{
 434:	1f 92       	push	r1
 436:	0f 92       	push	r0
 438:	0f b6       	in	r0, 0x3f	; 63
 43a:	0f 92       	push	r0
 43c:	11 24       	eor	r1, r1
 43e:	0b b6       	in	r0, 0x3b	; 59
 440:	0f 92       	push	r0
 442:	2f 93       	push	r18
 444:	3f 93       	push	r19
 446:	8f 93       	push	r24
 448:	9f 93       	push	r25
 44a:	ef 93       	push	r30
 44c:	ff 93       	push	r31
	int current_node, successor_node;
	int data = UDR0;
 44e:	80 91 c6 00 	lds	r24, 0x00C6	; 0x8000c6 <__TEXT_REGION_LENGTH__+0x7000c6>
 452:	90 e0       	ldi	r25, 0x00	; 0
	if (data >= 251 && data <= 254)
 454:	9c 01       	movw	r18, r24
 456:	2b 5f       	subi	r18, 0xFB	; 251
 458:	31 09       	sbc	r19, r1
 45a:	24 30       	cpi	r18, 0x04	; 4
 45c:	31 05       	cpc	r19, r1
 45e:	28 f4       	brcc	.+10     	; 0x46a <__vector_25+0x36>
	{
		flag_rx = data;
 460:	90 93 6d 0b 	sts	0x0B6D, r25	; 0x800b6d <flag_rx+0x1>
 464:	80 93 6c 0b 	sts	0x0B6C, r24	; 0x800b6c <flag_rx>
 468:	37 c0       	rjmp	.+110    	; 0x4d8 <__vector_25+0xa4>
	}
	else
	{
		if(flag_rx == 253)
 46a:	20 91 6c 0b 	lds	r18, 0x0B6C	; 0x800b6c <flag_rx>
 46e:	30 91 6d 0b 	lds	r19, 0x0B6D	; 0x800b6d <flag_rx+0x1>
 472:	2d 3f       	cpi	r18, 0xFD	; 253
 474:	31 05       	cpc	r19, r1
 476:	29 f4       	brne	.+10     	; 0x482 <__vector_25+0x4e>
		{
			track_current_mnp_index = data;
 478:	90 93 d5 0b 	sts	0x0BD5, r25	; 0x800bd5 <track_current_mnp_index+0x1>
 47c:	80 93 d4 0b 	sts	0x0BD4, r24	; 0x800bd4 <track_current_mnp_index>
 480:	2b c0       	rjmp	.+86     	; 0x4d8 <__vector_25+0xa4>
			
			// lcd_print(2, 1, track_current_mnp_index, 1);
		}
		if(flag_rx == 254)
 482:	2e 3f       	cpi	r18, 0xFE	; 254
 484:	31 05       	cpc	r19, r1
 486:	41 f5       	brne	.+80     	; 0x4d8 <__vector_25+0xa4>
		{
			if(data == 100)
 488:	84 36       	cpi	r24, 0x64	; 100
 48a:	91 05       	cpc	r25, r1
 48c:	39 f4       	brne	.+14     	; 0x49c <__vector_25+0x68>
			obs_flag = 210;
 48e:	82 ed       	ldi	r24, 0xD2	; 210
 490:	90 e0       	ldi	r25, 0x00	; 0
 492:	90 93 3f 0c 	sts	0x0C3F, r25	; 0x800c3f <obs_flag+0x1>
 496:	80 93 3e 0c 	sts	0x0C3E, r24	; 0x800c3e <obs_flag>
 49a:	1e c0       	rjmp	.+60     	; 0x4d8 <__vector_25+0xa4>
			else if(data == 200)
 49c:	88 3c       	cpi	r24, 0xC8	; 200
 49e:	91 05       	cpc	r25, r1
 4a0:	39 f4       	brne	.+14     	; 0x4b0 <__vector_25+0x7c>
			obs_flag = 220;
 4a2:	8c ed       	ldi	r24, 0xDC	; 220
 4a4:	90 e0       	ldi	r25, 0x00	; 0
 4a6:	90 93 3f 0c 	sts	0x0C3F, r25	; 0x800c3f <obs_flag+0x1>
 4aa:	80 93 3e 0c 	sts	0x0C3E, r24	; 0x800c3e <obs_flag>
 4ae:	14 c0       	rjmp	.+40     	; 0x4d8 <__vector_25+0xa4>
			{
				if(obs_flag == 210)
				{
					current_node = data;
				}
				else if(obs_flag == 220)
 4b0:	20 91 3e 0c 	lds	r18, 0x0C3E	; 0x800c3e <obs_flag>
 4b4:	30 91 3f 0c 	lds	r19, 0x0C3F	; 0x800c3f <obs_flag+0x1>
 4b8:	2c 3d       	cpi	r18, 0xDC	; 220
 4ba:	31 05       	cpc	r19, r1
 4bc:	69 f4       	brne	.+26     	; 0x4d8 <__vector_25+0xa4>
				{
					successor_node = data;
					connected_nodes[current_node][successor_node] = '0';
 4be:	20 e3       	ldi	r18, 0x30	; 48
 4c0:	fc 01       	movw	r30, r24
 4c2:	e0 50       	subi	r30, 0x00	; 0
 4c4:	fe 4f       	sbci	r31, 0xFE	; 254
 4c6:	20 83       	st	Z, r18
					connected_nodes[successor_node][current_node] = '0';
 4c8:	28 9f       	mul	r18, r24
 4ca:	f0 01       	movw	r30, r0
 4cc:	29 9f       	mul	r18, r25
 4ce:	f0 0d       	add	r31, r0
 4d0:	11 24       	eor	r1, r1
 4d2:	e0 50       	subi	r30, 0x00	; 0
 4d4:	fe 4f       	sbci	r31, 0xFE	; 254
 4d6:	20 83       	st	Z, r18
				}
			}
		}
	}
}
 4d8:	ff 91       	pop	r31
 4da:	ef 91       	pop	r30
 4dc:	9f 91       	pop	r25
 4de:	8f 91       	pop	r24
 4e0:	3f 91       	pop	r19
 4e2:	2f 91       	pop	r18
 4e4:	0f 90       	pop	r0
 4e6:	0b be       	out	0x3b, r0	; 59
 4e8:	0f 90       	pop	r0
 4ea:	0f be       	out	0x3f, r0	; 63
 4ec:	0f 90       	pop	r0
 4ee:	1f 90       	pop	r1
 4f0:	18 95       	reti

000004f2 <main>:
* Example Call:	automatically called by the micro-controller
*
*/
int main(void)
{
	init_devices();
 4f2:	96 df       	rcall	.-212    	; 0x420 <init_devices>
	lcd_set_4bit();
 4f4:	35 de       	rcall	.-918    	; 0x160 <lcd_set_4bit>
	lcd_init();
 4f6:	9c de       	rcall	.-712    	; 0x230 <lcd_init>
	#else
		//round up by default
		__ticks_dc = (uint32_t)(ceil(fabs(__tmp)));
	#endif

	__builtin_avr_delay_cycles(__ticks_dc);
 4f8:	2f ef       	ldi	r18, 0xFF	; 255
 4fa:	8f ef       	ldi	r24, 0xFF	; 255
 4fc:	99 e5       	ldi	r25, 0x59	; 89
 4fe:	21 50       	subi	r18, 0x01	; 1
 500:	80 40       	sbci	r24, 0x00	; 0
 502:	90 40       	sbci	r25, 0x00	; 0
 504:	e1 f7       	brne	.-8      	; 0x4fe <main+0xc>
 506:	00 c0       	rjmp	.+0      	; 0x508 <main+0x16>
 508:	00 00       	nop
	buzzer_on();
	_delay_ms(5000);
	buzzer_off();
	*/
	_delay_ms(2000);
	left_servo_2(180);
 50a:	84 eb       	ldi	r24, 0xB4	; 180
 50c:	14 de       	rcall	.-984    	; 0x136 <left_servo_2>
 50e:	2f ef       	ldi	r18, 0xFF	; 255
 510:	8f ef       	ldi	r24, 0xFF	; 255
 512:	9c e2       	ldi	r25, 0x2C	; 44
 514:	21 50       	subi	r18, 0x01	; 1
 516:	80 40       	sbci	r24, 0x00	; 0
 518:	90 40       	sbci	r25, 0x00	; 0
 51a:	e1 f7       	brne	.-8      	; 0x514 <main+0x22>
 51c:	00 c0       	rjmp	.+0      	; 0x51e <main+0x2c>
 51e:	00 00       	nop
	_delay_ms(1000);
	return 0;

}
 520:	80 e0       	ldi	r24, 0x00	; 0
 522:	90 e0       	ldi	r25, 0x00	; 0
 524:	08 95       	ret

00000526 <__subsf3>:
 526:	50 58       	subi	r21, 0x80	; 128

00000528 <__addsf3>:
 528:	bb 27       	eor	r27, r27
 52a:	aa 27       	eor	r26, r26
 52c:	0e d0       	rcall	.+28     	; 0x54a <__addsf3x>
 52e:	48 c1       	rjmp	.+656    	; 0x7c0 <__fp_round>
 530:	39 d1       	rcall	.+626    	; 0x7a4 <__fp_pscA>
 532:	30 f0       	brcs	.+12     	; 0x540 <__addsf3+0x18>
 534:	3e d1       	rcall	.+636    	; 0x7b2 <__fp_pscB>
 536:	20 f0       	brcs	.+8      	; 0x540 <__addsf3+0x18>
 538:	31 f4       	brne	.+12     	; 0x546 <__addsf3+0x1e>
 53a:	9f 3f       	cpi	r25, 0xFF	; 255
 53c:	11 f4       	brne	.+4      	; 0x542 <__addsf3+0x1a>
 53e:	1e f4       	brtc	.+6      	; 0x546 <__addsf3+0x1e>
 540:	2e c1       	rjmp	.+604    	; 0x79e <__fp_nan>
 542:	0e f4       	brtc	.+2      	; 0x546 <__addsf3+0x1e>
 544:	e0 95       	com	r30
 546:	e7 fb       	bst	r30, 7
 548:	24 c1       	rjmp	.+584    	; 0x792 <__fp_inf>

0000054a <__addsf3x>:
 54a:	e9 2f       	mov	r30, r25
 54c:	4a d1       	rcall	.+660    	; 0x7e2 <__fp_split3>
 54e:	80 f3       	brcs	.-32     	; 0x530 <__addsf3+0x8>
 550:	ba 17       	cp	r27, r26
 552:	62 07       	cpc	r22, r18
 554:	73 07       	cpc	r23, r19
 556:	84 07       	cpc	r24, r20
 558:	95 07       	cpc	r25, r21
 55a:	18 f0       	brcs	.+6      	; 0x562 <__addsf3x+0x18>
 55c:	71 f4       	brne	.+28     	; 0x57a <__addsf3x+0x30>
 55e:	9e f5       	brtc	.+102    	; 0x5c6 <__addsf3x+0x7c>
 560:	62 c1       	rjmp	.+708    	; 0x826 <__fp_zero>
 562:	0e f4       	brtc	.+2      	; 0x566 <__addsf3x+0x1c>
 564:	e0 95       	com	r30
 566:	0b 2e       	mov	r0, r27
 568:	ba 2f       	mov	r27, r26
 56a:	a0 2d       	mov	r26, r0
 56c:	0b 01       	movw	r0, r22
 56e:	b9 01       	movw	r22, r18
 570:	90 01       	movw	r18, r0
 572:	0c 01       	movw	r0, r24
 574:	ca 01       	movw	r24, r20
 576:	a0 01       	movw	r20, r0
 578:	11 24       	eor	r1, r1
 57a:	ff 27       	eor	r31, r31
 57c:	59 1b       	sub	r21, r25
 57e:	99 f0       	breq	.+38     	; 0x5a6 <__addsf3x+0x5c>
 580:	59 3f       	cpi	r21, 0xF9	; 249
 582:	50 f4       	brcc	.+20     	; 0x598 <__addsf3x+0x4e>
 584:	50 3e       	cpi	r21, 0xE0	; 224
 586:	68 f1       	brcs	.+90     	; 0x5e2 <__addsf3x+0x98>
 588:	1a 16       	cp	r1, r26
 58a:	f0 40       	sbci	r31, 0x00	; 0
 58c:	a2 2f       	mov	r26, r18
 58e:	23 2f       	mov	r18, r19
 590:	34 2f       	mov	r19, r20
 592:	44 27       	eor	r20, r20
 594:	58 5f       	subi	r21, 0xF8	; 248
 596:	f3 cf       	rjmp	.-26     	; 0x57e <__addsf3x+0x34>
 598:	46 95       	lsr	r20
 59a:	37 95       	ror	r19
 59c:	27 95       	ror	r18
 59e:	a7 95       	ror	r26
 5a0:	f0 40       	sbci	r31, 0x00	; 0
 5a2:	53 95       	inc	r21
 5a4:	c9 f7       	brne	.-14     	; 0x598 <__addsf3x+0x4e>
 5a6:	7e f4       	brtc	.+30     	; 0x5c6 <__addsf3x+0x7c>
 5a8:	1f 16       	cp	r1, r31
 5aa:	ba 0b       	sbc	r27, r26
 5ac:	62 0b       	sbc	r22, r18
 5ae:	73 0b       	sbc	r23, r19
 5b0:	84 0b       	sbc	r24, r20
 5b2:	ba f0       	brmi	.+46     	; 0x5e2 <__addsf3x+0x98>
 5b4:	91 50       	subi	r25, 0x01	; 1
 5b6:	a1 f0       	breq	.+40     	; 0x5e0 <__addsf3x+0x96>
 5b8:	ff 0f       	add	r31, r31
 5ba:	bb 1f       	adc	r27, r27
 5bc:	66 1f       	adc	r22, r22
 5be:	77 1f       	adc	r23, r23
 5c0:	88 1f       	adc	r24, r24
 5c2:	c2 f7       	brpl	.-16     	; 0x5b4 <__addsf3x+0x6a>
 5c4:	0e c0       	rjmp	.+28     	; 0x5e2 <__addsf3x+0x98>
 5c6:	ba 0f       	add	r27, r26
 5c8:	62 1f       	adc	r22, r18
 5ca:	73 1f       	adc	r23, r19
 5cc:	84 1f       	adc	r24, r20
 5ce:	48 f4       	brcc	.+18     	; 0x5e2 <__addsf3x+0x98>
 5d0:	87 95       	ror	r24
 5d2:	77 95       	ror	r23
 5d4:	67 95       	ror	r22
 5d6:	b7 95       	ror	r27
 5d8:	f7 95       	ror	r31
 5da:	9e 3f       	cpi	r25, 0xFE	; 254
 5dc:	08 f0       	brcs	.+2      	; 0x5e0 <__addsf3x+0x96>
 5de:	b3 cf       	rjmp	.-154    	; 0x546 <__addsf3+0x1e>
 5e0:	93 95       	inc	r25
 5e2:	88 0f       	add	r24, r24
 5e4:	08 f0       	brcs	.+2      	; 0x5e8 <__addsf3x+0x9e>
 5e6:	99 27       	eor	r25, r25
 5e8:	ee 0f       	add	r30, r30
 5ea:	97 95       	ror	r25
 5ec:	87 95       	ror	r24
 5ee:	08 95       	ret

000005f0 <__divsf3>:
 5f0:	0c d0       	rcall	.+24     	; 0x60a <__divsf3x>
 5f2:	e6 c0       	rjmp	.+460    	; 0x7c0 <__fp_round>
 5f4:	de d0       	rcall	.+444    	; 0x7b2 <__fp_pscB>
 5f6:	40 f0       	brcs	.+16     	; 0x608 <__divsf3+0x18>
 5f8:	d5 d0       	rcall	.+426    	; 0x7a4 <__fp_pscA>
 5fa:	30 f0       	brcs	.+12     	; 0x608 <__divsf3+0x18>
 5fc:	21 f4       	brne	.+8      	; 0x606 <__divsf3+0x16>
 5fe:	5f 3f       	cpi	r21, 0xFF	; 255
 600:	19 f0       	breq	.+6      	; 0x608 <__divsf3+0x18>
 602:	c7 c0       	rjmp	.+398    	; 0x792 <__fp_inf>
 604:	51 11       	cpse	r21, r1
 606:	10 c1       	rjmp	.+544    	; 0x828 <__fp_szero>
 608:	ca c0       	rjmp	.+404    	; 0x79e <__fp_nan>

0000060a <__divsf3x>:
 60a:	eb d0       	rcall	.+470    	; 0x7e2 <__fp_split3>
 60c:	98 f3       	brcs	.-26     	; 0x5f4 <__divsf3+0x4>

0000060e <__divsf3_pse>:
 60e:	99 23       	and	r25, r25
 610:	c9 f3       	breq	.-14     	; 0x604 <__divsf3+0x14>
 612:	55 23       	and	r21, r21
 614:	b1 f3       	breq	.-20     	; 0x602 <__divsf3+0x12>
 616:	95 1b       	sub	r25, r21
 618:	55 0b       	sbc	r21, r21
 61a:	bb 27       	eor	r27, r27
 61c:	aa 27       	eor	r26, r26
 61e:	62 17       	cp	r22, r18
 620:	73 07       	cpc	r23, r19
 622:	84 07       	cpc	r24, r20
 624:	38 f0       	brcs	.+14     	; 0x634 <__divsf3_pse+0x26>
 626:	9f 5f       	subi	r25, 0xFF	; 255
 628:	5f 4f       	sbci	r21, 0xFF	; 255
 62a:	22 0f       	add	r18, r18
 62c:	33 1f       	adc	r19, r19
 62e:	44 1f       	adc	r20, r20
 630:	aa 1f       	adc	r26, r26
 632:	a9 f3       	breq	.-22     	; 0x61e <__divsf3_pse+0x10>
 634:	33 d0       	rcall	.+102    	; 0x69c <__divsf3_pse+0x8e>
 636:	0e 2e       	mov	r0, r30
 638:	3a f0       	brmi	.+14     	; 0x648 <__divsf3_pse+0x3a>
 63a:	e0 e8       	ldi	r30, 0x80	; 128
 63c:	30 d0       	rcall	.+96     	; 0x69e <__divsf3_pse+0x90>
 63e:	91 50       	subi	r25, 0x01	; 1
 640:	50 40       	sbci	r21, 0x00	; 0
 642:	e6 95       	lsr	r30
 644:	00 1c       	adc	r0, r0
 646:	ca f7       	brpl	.-14     	; 0x63a <__divsf3_pse+0x2c>
 648:	29 d0       	rcall	.+82     	; 0x69c <__divsf3_pse+0x8e>
 64a:	fe 2f       	mov	r31, r30
 64c:	27 d0       	rcall	.+78     	; 0x69c <__divsf3_pse+0x8e>
 64e:	66 0f       	add	r22, r22
 650:	77 1f       	adc	r23, r23
 652:	88 1f       	adc	r24, r24
 654:	bb 1f       	adc	r27, r27
 656:	26 17       	cp	r18, r22
 658:	37 07       	cpc	r19, r23
 65a:	48 07       	cpc	r20, r24
 65c:	ab 07       	cpc	r26, r27
 65e:	b0 e8       	ldi	r27, 0x80	; 128
 660:	09 f0       	breq	.+2      	; 0x664 <__divsf3_pse+0x56>
 662:	bb 0b       	sbc	r27, r27
 664:	80 2d       	mov	r24, r0
 666:	bf 01       	movw	r22, r30
 668:	ff 27       	eor	r31, r31
 66a:	93 58       	subi	r25, 0x83	; 131
 66c:	5f 4f       	sbci	r21, 0xFF	; 255
 66e:	2a f0       	brmi	.+10     	; 0x67a <__divsf3_pse+0x6c>
 670:	9e 3f       	cpi	r25, 0xFE	; 254
 672:	51 05       	cpc	r21, r1
 674:	68 f0       	brcs	.+26     	; 0x690 <__divsf3_pse+0x82>
 676:	8d c0       	rjmp	.+282    	; 0x792 <__fp_inf>
 678:	d7 c0       	rjmp	.+430    	; 0x828 <__fp_szero>
 67a:	5f 3f       	cpi	r21, 0xFF	; 255
 67c:	ec f3       	brlt	.-6      	; 0x678 <__divsf3_pse+0x6a>
 67e:	98 3e       	cpi	r25, 0xE8	; 232
 680:	dc f3       	brlt	.-10     	; 0x678 <__divsf3_pse+0x6a>
 682:	86 95       	lsr	r24
 684:	77 95       	ror	r23
 686:	67 95       	ror	r22
 688:	b7 95       	ror	r27
 68a:	f7 95       	ror	r31
 68c:	9f 5f       	subi	r25, 0xFF	; 255
 68e:	c9 f7       	brne	.-14     	; 0x682 <__divsf3_pse+0x74>
 690:	88 0f       	add	r24, r24
 692:	91 1d       	adc	r25, r1
 694:	96 95       	lsr	r25
 696:	87 95       	ror	r24
 698:	97 f9       	bld	r25, 7
 69a:	08 95       	ret
 69c:	e1 e0       	ldi	r30, 0x01	; 1
 69e:	66 0f       	add	r22, r22
 6a0:	77 1f       	adc	r23, r23
 6a2:	88 1f       	adc	r24, r24
 6a4:	bb 1f       	adc	r27, r27
 6a6:	62 17       	cp	r22, r18
 6a8:	73 07       	cpc	r23, r19
 6aa:	84 07       	cpc	r24, r20
 6ac:	ba 07       	cpc	r27, r26
 6ae:	20 f0       	brcs	.+8      	; 0x6b8 <__divsf3_pse+0xaa>
 6b0:	62 1b       	sub	r22, r18
 6b2:	73 0b       	sbc	r23, r19
 6b4:	84 0b       	sbc	r24, r20
 6b6:	ba 0b       	sbc	r27, r26
 6b8:	ee 1f       	adc	r30, r30
 6ba:	88 f7       	brcc	.-30     	; 0x69e <__divsf3_pse+0x90>
 6bc:	e0 95       	com	r30
 6be:	08 95       	ret

000006c0 <__fixunssfsi>:
 6c0:	98 d0       	rcall	.+304    	; 0x7f2 <__fp_splitA>
 6c2:	88 f0       	brcs	.+34     	; 0x6e6 <__fixunssfsi+0x26>
 6c4:	9f 57       	subi	r25, 0x7F	; 127
 6c6:	90 f0       	brcs	.+36     	; 0x6ec <__fixunssfsi+0x2c>
 6c8:	b9 2f       	mov	r27, r25
 6ca:	99 27       	eor	r25, r25
 6cc:	b7 51       	subi	r27, 0x17	; 23
 6ce:	a0 f0       	brcs	.+40     	; 0x6f8 <__fixunssfsi+0x38>
 6d0:	d1 f0       	breq	.+52     	; 0x706 <__fixunssfsi+0x46>
 6d2:	66 0f       	add	r22, r22
 6d4:	77 1f       	adc	r23, r23
 6d6:	88 1f       	adc	r24, r24
 6d8:	99 1f       	adc	r25, r25
 6da:	1a f0       	brmi	.+6      	; 0x6e2 <__fixunssfsi+0x22>
 6dc:	ba 95       	dec	r27
 6de:	c9 f7       	brne	.-14     	; 0x6d2 <__fixunssfsi+0x12>
 6e0:	12 c0       	rjmp	.+36     	; 0x706 <__fixunssfsi+0x46>
 6e2:	b1 30       	cpi	r27, 0x01	; 1
 6e4:	81 f0       	breq	.+32     	; 0x706 <__fixunssfsi+0x46>
 6e6:	9f d0       	rcall	.+318    	; 0x826 <__fp_zero>
 6e8:	b1 e0       	ldi	r27, 0x01	; 1
 6ea:	08 95       	ret
 6ec:	9c c0       	rjmp	.+312    	; 0x826 <__fp_zero>
 6ee:	67 2f       	mov	r22, r23
 6f0:	78 2f       	mov	r23, r24
 6f2:	88 27       	eor	r24, r24
 6f4:	b8 5f       	subi	r27, 0xF8	; 248
 6f6:	39 f0       	breq	.+14     	; 0x706 <__fixunssfsi+0x46>
 6f8:	b9 3f       	cpi	r27, 0xF9	; 249
 6fa:	cc f3       	brlt	.-14     	; 0x6ee <__fixunssfsi+0x2e>
 6fc:	86 95       	lsr	r24
 6fe:	77 95       	ror	r23
 700:	67 95       	ror	r22
 702:	b3 95       	inc	r27
 704:	d9 f7       	brne	.-10     	; 0x6fc <__fixunssfsi+0x3c>
 706:	3e f4       	brtc	.+14     	; 0x716 <__fixunssfsi+0x56>
 708:	90 95       	com	r25
 70a:	80 95       	com	r24
 70c:	70 95       	com	r23
 70e:	61 95       	neg	r22
 710:	7f 4f       	sbci	r23, 0xFF	; 255
 712:	8f 4f       	sbci	r24, 0xFF	; 255
 714:	9f 4f       	sbci	r25, 0xFF	; 255
 716:	08 95       	ret

00000718 <__floatunsisf>:
 718:	e8 94       	clt
 71a:	09 c0       	rjmp	.+18     	; 0x72e <__floatsisf+0x12>

0000071c <__floatsisf>:
 71c:	97 fb       	bst	r25, 7
 71e:	3e f4       	brtc	.+14     	; 0x72e <__floatsisf+0x12>
 720:	90 95       	com	r25
 722:	80 95       	com	r24
 724:	70 95       	com	r23
 726:	61 95       	neg	r22
 728:	7f 4f       	sbci	r23, 0xFF	; 255
 72a:	8f 4f       	sbci	r24, 0xFF	; 255
 72c:	9f 4f       	sbci	r25, 0xFF	; 255
 72e:	99 23       	and	r25, r25
 730:	a9 f0       	breq	.+42     	; 0x75c <__floatsisf+0x40>
 732:	f9 2f       	mov	r31, r25
 734:	96 e9       	ldi	r25, 0x96	; 150
 736:	bb 27       	eor	r27, r27
 738:	93 95       	inc	r25
 73a:	f6 95       	lsr	r31
 73c:	87 95       	ror	r24
 73e:	77 95       	ror	r23
 740:	67 95       	ror	r22
 742:	b7 95       	ror	r27
 744:	f1 11       	cpse	r31, r1
 746:	f8 cf       	rjmp	.-16     	; 0x738 <__floatsisf+0x1c>
 748:	fa f4       	brpl	.+62     	; 0x788 <__floatsisf+0x6c>
 74a:	bb 0f       	add	r27, r27
 74c:	11 f4       	brne	.+4      	; 0x752 <__floatsisf+0x36>
 74e:	60 ff       	sbrs	r22, 0
 750:	1b c0       	rjmp	.+54     	; 0x788 <__floatsisf+0x6c>
 752:	6f 5f       	subi	r22, 0xFF	; 255
 754:	7f 4f       	sbci	r23, 0xFF	; 255
 756:	8f 4f       	sbci	r24, 0xFF	; 255
 758:	9f 4f       	sbci	r25, 0xFF	; 255
 75a:	16 c0       	rjmp	.+44     	; 0x788 <__floatsisf+0x6c>
 75c:	88 23       	and	r24, r24
 75e:	11 f0       	breq	.+4      	; 0x764 <__floatsisf+0x48>
 760:	96 e9       	ldi	r25, 0x96	; 150
 762:	11 c0       	rjmp	.+34     	; 0x786 <__floatsisf+0x6a>
 764:	77 23       	and	r23, r23
 766:	21 f0       	breq	.+8      	; 0x770 <__floatsisf+0x54>
 768:	9e e8       	ldi	r25, 0x8E	; 142
 76a:	87 2f       	mov	r24, r23
 76c:	76 2f       	mov	r23, r22
 76e:	05 c0       	rjmp	.+10     	; 0x77a <__floatsisf+0x5e>
 770:	66 23       	and	r22, r22
 772:	71 f0       	breq	.+28     	; 0x790 <__floatsisf+0x74>
 774:	96 e8       	ldi	r25, 0x86	; 134
 776:	86 2f       	mov	r24, r22
 778:	70 e0       	ldi	r23, 0x00	; 0
 77a:	60 e0       	ldi	r22, 0x00	; 0
 77c:	2a f0       	brmi	.+10     	; 0x788 <__floatsisf+0x6c>
 77e:	9a 95       	dec	r25
 780:	66 0f       	add	r22, r22
 782:	77 1f       	adc	r23, r23
 784:	88 1f       	adc	r24, r24
 786:	da f7       	brpl	.-10     	; 0x77e <__floatsisf+0x62>
 788:	88 0f       	add	r24, r24
 78a:	96 95       	lsr	r25
 78c:	87 95       	ror	r24
 78e:	97 f9       	bld	r25, 7
 790:	08 95       	ret

00000792 <__fp_inf>:
 792:	97 f9       	bld	r25, 7
 794:	9f 67       	ori	r25, 0x7F	; 127
 796:	80 e8       	ldi	r24, 0x80	; 128
 798:	70 e0       	ldi	r23, 0x00	; 0
 79a:	60 e0       	ldi	r22, 0x00	; 0
 79c:	08 95       	ret

0000079e <__fp_nan>:
 79e:	9f ef       	ldi	r25, 0xFF	; 255
 7a0:	80 ec       	ldi	r24, 0xC0	; 192
 7a2:	08 95       	ret

000007a4 <__fp_pscA>:
 7a4:	00 24       	eor	r0, r0
 7a6:	0a 94       	dec	r0
 7a8:	16 16       	cp	r1, r22
 7aa:	17 06       	cpc	r1, r23
 7ac:	18 06       	cpc	r1, r24
 7ae:	09 06       	cpc	r0, r25
 7b0:	08 95       	ret

000007b2 <__fp_pscB>:
 7b2:	00 24       	eor	r0, r0
 7b4:	0a 94       	dec	r0
 7b6:	12 16       	cp	r1, r18
 7b8:	13 06       	cpc	r1, r19
 7ba:	14 06       	cpc	r1, r20
 7bc:	05 06       	cpc	r0, r21
 7be:	08 95       	ret

000007c0 <__fp_round>:
 7c0:	09 2e       	mov	r0, r25
 7c2:	03 94       	inc	r0
 7c4:	00 0c       	add	r0, r0
 7c6:	11 f4       	brne	.+4      	; 0x7cc <__fp_round+0xc>
 7c8:	88 23       	and	r24, r24
 7ca:	52 f0       	brmi	.+20     	; 0x7e0 <__fp_round+0x20>
 7cc:	bb 0f       	add	r27, r27
 7ce:	40 f4       	brcc	.+16     	; 0x7e0 <__fp_round+0x20>
 7d0:	bf 2b       	or	r27, r31
 7d2:	11 f4       	brne	.+4      	; 0x7d8 <__fp_round+0x18>
 7d4:	60 ff       	sbrs	r22, 0
 7d6:	04 c0       	rjmp	.+8      	; 0x7e0 <__fp_round+0x20>
 7d8:	6f 5f       	subi	r22, 0xFF	; 255
 7da:	7f 4f       	sbci	r23, 0xFF	; 255
 7dc:	8f 4f       	sbci	r24, 0xFF	; 255
 7de:	9f 4f       	sbci	r25, 0xFF	; 255
 7e0:	08 95       	ret

000007e2 <__fp_split3>:
 7e2:	57 fd       	sbrc	r21, 7
 7e4:	90 58       	subi	r25, 0x80	; 128
 7e6:	44 0f       	add	r20, r20
 7e8:	55 1f       	adc	r21, r21
 7ea:	59 f0       	breq	.+22     	; 0x802 <__fp_splitA+0x10>
 7ec:	5f 3f       	cpi	r21, 0xFF	; 255
 7ee:	71 f0       	breq	.+28     	; 0x80c <__fp_splitA+0x1a>
 7f0:	47 95       	ror	r20

000007f2 <__fp_splitA>:
 7f2:	88 0f       	add	r24, r24
 7f4:	97 fb       	bst	r25, 7
 7f6:	99 1f       	adc	r25, r25
 7f8:	61 f0       	breq	.+24     	; 0x812 <__fp_splitA+0x20>
 7fa:	9f 3f       	cpi	r25, 0xFF	; 255
 7fc:	79 f0       	breq	.+30     	; 0x81c <__fp_splitA+0x2a>
 7fe:	87 95       	ror	r24
 800:	08 95       	ret
 802:	12 16       	cp	r1, r18
 804:	13 06       	cpc	r1, r19
 806:	14 06       	cpc	r1, r20
 808:	55 1f       	adc	r21, r21
 80a:	f2 cf       	rjmp	.-28     	; 0x7f0 <__fp_split3+0xe>
 80c:	46 95       	lsr	r20
 80e:	f1 df       	rcall	.-30     	; 0x7f2 <__fp_splitA>
 810:	08 c0       	rjmp	.+16     	; 0x822 <__fp_splitA+0x30>
 812:	16 16       	cp	r1, r22
 814:	17 06       	cpc	r1, r23
 816:	18 06       	cpc	r1, r24
 818:	99 1f       	adc	r25, r25
 81a:	f1 cf       	rjmp	.-30     	; 0x7fe <__fp_splitA+0xc>
 81c:	86 95       	lsr	r24
 81e:	71 05       	cpc	r23, r1
 820:	61 05       	cpc	r22, r1
 822:	08 94       	sec
 824:	08 95       	ret

00000826 <__fp_zero>:
 826:	e8 94       	clt

00000828 <__fp_szero>:
 828:	bb 27       	eor	r27, r27
 82a:	66 27       	eor	r22, r22
 82c:	77 27       	eor	r23, r23
 82e:	cb 01       	movw	r24, r22
 830:	97 f9       	bld	r25, 7
 832:	08 95       	ret

00000834 <_exit>:
 834:	f8 94       	cli

00000836 <__stop_program>:
 836:	ff cf       	rjmp	.-2      	; 0x836 <__stop_program>
